; Function Attrs: mustprogress uwtable
define void @_ZN8QuantLib23ForwardMeasureProcess1DC2ERKN5boost10shared_ptrINS_19StochasticProcess1D14discretizationEEE(ptr noundef nonnull align 8 dereferenceable(152) %this, ptr nocapture noundef nonnull readonly align 8 dereferenceable(16) %disc) unnamed_addr #6 align 2 personality ptr @__gxx_personality_v0 {
entry:
  %agg.tmp = alloca %"class.boost::shared_ptr.7", align 8
  %0 = load ptr, ptr %disc, align 8, !tbaa !45
  store ptr %0, ptr %agg.tmp, align 8, !tbaa !45
  %pn.i = getelementptr inbounds nuw i8, ptr %agg.tmp, i64 8
  %pn3.i = getelementptr inbounds nuw i8, ptr %disc, i64 8
  %1 = load ptr, ptr %pn3.i, align 8, !tbaa !31
  store ptr %1, ptr %pn.i, align 8, !tbaa !31
  %cmp.not.i.i = icmp eq ptr %1, null
  br i1 %cmp.not.i.i, label %_ZN5boost10shared_ptrIN8QuantLib19StochasticProcess1D14discretizationEEC2ERKS4_.exit, label %if.then.i.i

if.then.i.i:                                      ; preds = %entry
  %use_count_.i.i.i = getelementptr inbounds nuw i8, ptr %1, i64 8
  %2 = atomicrmw add ptr %use_count_.i.i.i, i32 1 monotonic, align 4
  br label %_ZN5boost10shared_ptrIN8QuantLib19StochasticProcess1D14discretizationEEC2ERKS4_.exit

_ZN5boost10shared_ptrIN8QuantLib19StochasticProcess1D14discretizationEEC2ERKS4_.exit: ; preds = %entry, %if.then.i.i
  invoke void @_ZN8QuantLib19StochasticProcess1DC2EN5boost10shared_ptrINS0_14discretizationEEE(ptr noundef nonnull align 8 dereferenceable(144) %this, ptr noundef nonnull %agg.tmp)
          to label %invoke.cont unwind label %lpad

invoke.cont:                                      ; preds = %_ZN5boost10shared_ptrIN8QuantLib19StochasticProcess1D14discretizationEEC2ERKS4_.exit
  %3 = load ptr, ptr %pn.i, align 8, !tbaa !31
  %cmp.not.i.i2 = icmp eq ptr %3, null
  br i1 %cmp.not.i.i2, label %_ZN5boost10shared_ptrIN8QuantLib19StochasticProcess1D14discretizationEED2Ev.exit, label %if.then.i.i3

if.then.i.i3:                                     ; preds = %invoke.cont
  %use_count_.i.i.i4 = getelementptr inbounds nuw i8, ptr %3, i64 8
  %4 = atomicrmw sub ptr %use_count_.i.i.i4, i32 1 acq_rel, align 4
  %cmp.i.i.i = icmp eq i32 %4, 1
  br i1 %cmp.i.i.i, label %if.then.i.i.i, label %_ZN5boost10shared_ptrIN8QuantLib19StochasticProcess1D14discretizationEED2Ev.exit

if.then.i.i.i:                                    ; preds = %if.then.i.i3
  %vtable.i.i.i = load ptr, ptr %3, align 8, !tbaa !32
  %vfn.i.i.i = getelementptr inbounds i8, ptr %vtable.i.i.i, i64 16
  %5 = load ptr, ptr %vfn.i.i.i, align 8
  invoke void %5(ptr noundef nonnull align 8 dereferenceable(16) %3)
          to label %.noexc.i.i unwind label %terminate.lpad.i.i

.noexc.i.i:                                       ; preds = %if.then.i.i.i
  %weak_count_.i.i.i.i = getelementptr inbounds nuw i8, ptr %3, i64 12
  %6 = atomicrmw sub ptr %weak_count_.i.i.i.i, i32 1 acq_rel, align 4
  %cmp.i.i.i.i = icmp eq i32 %6, 1
  br i1 %cmp.i.i.i.i, label %if.then.i.i.i.i, label %_ZN5boost10shared_ptrIN8QuantLib19StochasticProcess1D14discretizationEED2Ev.exit

if.then.i.i.i.i:                                  ; preds = %.noexc.i.i
  %vtable.i.i.i.i = load ptr, ptr %3, align 8, !tbaa !32
  %vfn.i.i.i.i = getelementptr inbounds i8, ptr %vtable.i.i.i.i, i64 24
  %7 = load ptr, ptr %vfn.i.i.i.i, align 8
  invoke void %7(ptr noundef nonnull align 8 dereferenceable(16) %3)
          to label %_ZN5boost10shared_ptrIN8QuantLib19StochasticProcess1D14discretizationEED2Ev.exit unwind label %terminate.lpad.i.i

terminate.lpad.i.i:                               ; preds = %if.then.i.i.i.i, %if.then.i.i.i
  %8 = landingpad { ptr, i32 }
          catch ptr null
  %9 = extractvalue { ptr, i32 } %8, 0
  call void @__clang_call_terminate(ptr %9) #17
  unreachable

_ZN5boost10shared_ptrIN8QuantLib19StochasticProcess1D14discretizationEED2Ev.exit: ; preds = %invoke.cont, %if.then.i.i3, %.noexc.i.i, %if.then.i.i.i.i
  store ptr getelementptr inbounds inrange(-16, 192) (i8, ptr @_ZTVN8QuantLib23ForwardMeasureProcess1DE, i64 16), ptr %this, align 8, !tbaa !32
  %add.ptr = getelementptr inbounds i8, ptr %this, i64 56
  store ptr getelementptr inbounds inrange(-16, 16) (i8, ptr @_ZTVN8QuantLib23ForwardMeasureProcess1DE, i64 224), ptr %add.ptr, align 8, !tbaa !32
  ret void

lpad:                                             ; preds = %_ZN5boost10shared_ptrIN8QuantLib19StochasticProcess1D14discretizationEEC2ERKS4_.exit
  %10 = landingpad { ptr, i32 }
          cleanup
  call void @_ZN5boost10shared_ptrIN8QuantLib19StochasticProcess1D14discretizationEED2Ev(ptr noundef nonnull align 8 dereferenceable(16) %agg.tmp) #16
  resume { ptr, i32 } %10
}